; ModuleID = '35/908.c'
source_filename = "35/908.c"
target datalayout = "e-m:e-p270:32:32-p271:32:32-p272:64:64-i64:64-f80:128-n8:16:32:64-S128"
target triple = "x86_64-pc-linux-gnu"

@.str = private unnamed_addr constant [6 x i8] c"%d,%d\00", align 1
@.str.1 = private unnamed_addr constant [3 x i8] c"%d\00", align 1
@.str.2 = private unnamed_addr constant [6 x i8] c"%d+%d\00", align 1
@.str.3 = private unnamed_addr constant [3 x i8] c"No\00", align 1

; Function Attrs: noinline nounwind uwtable
define dso_local void @main() #0 {
  %1 = alloca i32, align 4
  %2 = alloca i32, align 4
  %3 = alloca i32, align 4
  %4 = alloca i32, align 4
  %5 = alloca i32, align 4
  %6 = alloca i32, align 4
  %7 = alloca [8 x [8 x i32]], align 16
  %8 = alloca i32, align 4
  %9 = alloca [2 x i32], align 4
  %10 = alloca i32, align 4
  store i32 0, i32* %6, align 4
  %11 = call i32 (i8*, ...) @__isoc99_scanf(i8* getelementptr inbounds ([6 x i8], [6 x i8]* @.str, i64 0, i64 0), i32* %1, i32* %2)
  store i32 0, i32* %3, align 4
  br label %12

12:                                               ; preds = %33, %0
  %13 = load i32, i32* %3, align 4
  %14 = load i32, i32* %1, align 4
  %15 = icmp slt i32 %13, %14
  br i1 %15, label %16, label %36

16:                                               ; preds = %12
  store i32 0, i32* %4, align 4
  br label %17

17:                                               ; preds = %29, %16
  %18 = load i32, i32* %4, align 4
  %19 = load i32, i32* %2, align 4
  %20 = icmp slt i32 %18, %19
  br i1 %20, label %21, label %32

21:                                               ; preds = %17
  %22 = load i32, i32* %3, align 4
  %23 = sext i32 %22 to i64
  %24 = getelementptr inbounds [8 x [8 x i32]], [8 x [8 x i32]]* %7, i64 0, i64 %23
  %25 = load i32, i32* %4, align 4
  %26 = sext i32 %25 to i64
  %27 = getelementptr inbounds [8 x i32], [8 x i32]* %24, i64 0, i64 %26
  %28 = call i32 (i8*, ...) @__isoc99_scanf(i8* getelementptr inbounds ([3 x i8], [3 x i8]* @.str.1, i64 0, i64 0), i32* %27)
  br label %29

29:                                               ; preds = %21
  %30 = load i32, i32* %4, align 4
  %31 = add nsw i32 %30, 1
  store i32 %31, i32* %4, align 4
  br label %17

32:                                               ; preds = %17
  br label %33

33:                                               ; preds = %32
  %34 = load i32, i32* %3, align 4
  %35 = add nsw i32 %34, 1
  store i32 %35, i32* %3, align 4
  br label %12

36:                                               ; preds = %12
  store i32 0, i32* %3, align 4
  br label %37

37:                                               ; preds = %127, %36
  %38 = load i32, i32* %3, align 4
  %39 = load i32, i32* %1, align 4
  %40 = icmp slt i32 %38, %39
  br i1 %40, label %41, label %130

41:                                               ; preds = %37
  %42 = load i32, i32* %3, align 4
  %43 = sext i32 %42 to i64
  %44 = getelementptr inbounds [8 x [8 x i32]], [8 x [8 x i32]]* %7, i64 0, i64 %43
  %45 = getelementptr inbounds [8 x i32], [8 x i32]* %44, i64 0, i64 0
  %46 = load i32, i32* %45, align 16
  store i32 %46, i32* %8, align 4
  %47 = load i32, i32* %3, align 4
  %48 = getelementptr inbounds [2 x i32], [2 x i32]* %9, i64 0, i64 0
  store i32 %47, i32* %48, align 4
  %49 = getelementptr inbounds [2 x i32], [2 x i32]* %9, i64 0, i64 1
  store i32 0, i32* %49, align 4
  store i32 1, i32* %4, align 4
  br label %50

50:                                               ; preds = %75, %41
  %51 = load i32, i32* %4, align 4
  %52 = load i32, i32* %2, align 4
  %53 = icmp slt i32 %51, %52
  br i1 %53, label %54, label %78

54:                                               ; preds = %50
  %55 = load i32, i32* %3, align 4
  %56 = sext i32 %55 to i64
  %57 = getelementptr inbounds [8 x [8 x i32]], [8 x [8 x i32]]* %7, i64 0, i64 %56
  %58 = load i32, i32* %4, align 4
  %59 = sext i32 %58 to i64
  %60 = getelementptr inbounds [8 x i32], [8 x i32]* %57, i64 0, i64 %59
  %61 = load i32, i32* %60, align 4
  %62 = load i32, i32* %8, align 4
  %63 = icmp sgt i32 %61, %62
  br i1 %63, label %64, label %74

64:                                               ; preds = %54
  %65 = load i32, i32* %3, align 4
  %66 = sext i32 %65 to i64
  %67 = getelementptr inbounds [8 x [8 x i32]], [8 x [8 x i32]]* %7, i64 0, i64 %66
  %68 = load i32, i32* %4, align 4
  %69 = sext i32 %68 to i64
  %70 = getelementptr inbounds [8 x i32], [8 x i32]* %67, i64 0, i64 %69
  %71 = load i32, i32* %70, align 4
  store i32 %71, i32* %8, align 4
  %72 = load i32, i32* %4, align 4
  %73 = getelementptr inbounds [2 x i32], [2 x i32]* %9, i64 0, i64 1
  store i32 %72, i32* %73, align 4
  br label %74

74:                                               ; preds = %64, %54
  br label %75

75:                                               ; preds = %74
  %76 = load i32, i32* %4, align 4
  %77 = add nsw i32 %76, 1
  store i32 %77, i32* %4, align 4
  br label %50

78:                                               ; preds = %50
  %79 = load i32, i32* %8, align 4
  store i32 %79, i32* %10, align 4
  %80 = getelementptr inbounds [2 x i32], [2 x i32]* %9, i64 0, i64 1
  %81 = load i32, i32* %80, align 4
  store i32 %81, i32* %4, align 4
  store i32 0, i32* %5, align 4
  br label %82

82:                                               ; preds = %107, %78
  %83 = load i32, i32* %5, align 4
  %84 = load i32, i32* %1, align 4
  %85 = icmp slt i32 %83, %84
  br i1 %85, label %86, label %110

86:                                               ; preds = %82
  %87 = load i32, i32* %5, align 4
  %88 = sext i32 %87 to i64
  %89 = getelementptr inbounds [8 x [8 x i32]], [8 x [8 x i32]]* %7, i64 0, i64 %88
  %90 = load i32, i32* %4, align 4
  %91 = sext i32 %90 to i64
  %92 = getelementptr inbounds [8 x i32], [8 x i32]* %89, i64 0, i64 %91
  %93 = load i32, i32* %92, align 4
  %94 = load i32, i32* %10, align 4
  %95 = icmp slt i32 %93, %94
  br i1 %95, label %96, label %106

96:                                               ; preds = %86
  %97 = load i32, i32* %5, align 4
  %98 = sext i32 %97 to i64
  %99 = getelementptr inbounds [8 x [8 x i32]], [8 x [8 x i32]]* %7, i64 0, i64 %98
  %100 = load i32, i32* %4, align 4
  %101 = sext i32 %100 to i64
  %102 = getelementptr inbounds [8 x i32], [8 x i32]* %99, i64 0, i64 %101
  %103 = load i32, i32* %102, align 4
  store i32 %103, i32* %10, align 4
  %104 = load i32, i32* %5, align 4
  %105 = getelementptr inbounds [2 x i32], [2 x i32]* %9, i64 0, i64 0
  store i32 %104, i32* %105, align 4
  br label %106

106:                                              ; preds = %96, %86
  br label %107

107:                                              ; preds = %106
  %108 = load i32, i32* %5, align 4
  %109 = add nsw i32 %108, 1
  store i32 %109, i32* %5, align 4
  br label %82

110:                                              ; preds = %82
  %111 = getelementptr inbounds [2 x i32], [2 x i32]* %9, i64 0, i64 0
  %112 = load i32, i32* %111, align 4
  %113 = load i32, i32* %3, align 4
  %114 = icmp eq i32 %112, %113
  br i1 %114, label %115, label %126

115:                                              ; preds = %110
  %116 = getelementptr inbounds [2 x i32], [2 x i32]* %9, i64 0, i64 1
  %117 = load i32, i32* %116, align 4
  %118 = load i32, i32* %4, align 4
  %119 = icmp eq i32 %117, %118
  br i1 %119, label %120, label %126

120:                                              ; preds = %115
  %121 = getelementptr inbounds [2 x i32], [2 x i32]* %9, i64 0, i64 0
  %122 = load i32, i32* %121, align 4
  %123 = getelementptr inbounds [2 x i32], [2 x i32]* %9, i64 0, i64 1
  %124 = load i32, i32* %123, align 4
  %125 = call i32 (i8*, ...) @printf(i8* getelementptr inbounds ([6 x i8], [6 x i8]* @.str.2, i64 0, i64 0), i32 %122, i32 %124)
  store i32 1, i32* %6, align 4
  br label %126

126:                                              ; preds = %120, %115, %110
  br label %127

127:                                              ; preds = %126
  %128 = load i32, i32* %3, align 4
  %129 = add nsw i32 %128, 1
  store i32 %129, i32* %3, align 4
  br label %37

130:                                              ; preds = %37
  %131 = load i32, i32* %6, align 4
  %132 = icmp eq i32 %131, 0
  br i1 %132, label %133, label %135

133:                                              ; preds = %130
  %134 = call i32 (i8*, ...) @printf(i8* getelementptr inbounds ([3 x i8], [3 x i8]* @.str.3, i64 0, i64 0))
  br label %135

135:                                              ; preds = %133, %130
  ret void
}

declare dso_local i32 @__isoc99_scanf(i8*, ...) #1

declare dso_local i32 @printf(i8*, ...) #1


!llvm.module.flags = !{!0}
!llvm.ident = !{!1}

!0 = !{i32 1, !"wchar_size", i32 4}
!1 = !{!"clang version 10.0.0-4ubuntu1 "}
